target datalayout = "e-m:e-p270:32:32-p271:32:32-p272:64:64-i64:64-i128:128-f80:128-n8:16:32:64-S128"
target triple = "x86_64-pc-linux-gnu"

%"class.std::__cxx11::basic_string" = type { %"struct.std::__cxx11::basic_string<char>::_Alloc_hider", i64, %union.anon }
%"struct.std::__cxx11::basic_string<char>::_Alloc_hider" = type { ptr }
%union.anon = type { i64, [8 x i8] }
%"struct.Luau::(anonymous namespace)::StateDot" = type { %"struct.Luau::ToDotOptions", %"class.std::unordered_set", %"class.std::unordered_set.5", %"class.std::unordered_map", %"class.std::unordered_map.38", i32, %"class.std::__cxx11::basic_string" }
%"struct.Luau::ToDotOptions" = type { i8, i8 }
%"class.std::unordered_set" = type { %"class.std::_Hashtable" }
%"class.std::_Hashtable" = type { ptr, i64, %"struct.std::__detail::_Hash_node_base", i64, %"struct.std::__detail::_Prime_rehash_policy", ptr }
%"struct.std::__detail::_Hash_node_base" = type { ptr }
%"struct.std::__detail::_Prime_rehash_policy" = type { float, i64 }
%"class.std::unordered_set.5" = type { %"class.std::_Hashtable.6" }
%"class.std::_Hashtable.6" = type { ptr, i64, %"struct.std::__detail::_Hash_node_base", i64, %"struct.std::__detail::_Prime_rehash_policy", ptr }
%"class.std::unordered_map" = type { %"class.std::_Hashtable.25" }
%"class.std::_Hashtable.25" = type { ptr, i64, %"struct.std::__detail::_Hash_node_base", i64, %"struct.std::__detail::_Prime_rehash_policy", ptr }
%"class.std::unordered_map.38" = type { %"class.std::_Hashtable.39" }
%"class.std::_Hashtable.39" = type { ptr, i64, %"struct.std::__detail::_Hash_node_base", i64, %"struct.std::__detail::_Prime_rehash_policy", ptr }
%class.anon = type { ptr, ptr, ptr }

@.str.67 = private unnamed_addr constant [6 x i8] c"\0A0x%p\00", align 1
@.str.68 = private unnamed_addr constant [2 x i8] c"\22\00", align 1
@.str.69 = private unnamed_addr constant [4 x i8] c"];\0A\00", align 1
@.str.84 = private unnamed_addr constant [15 x i8] c"BlockedType %d\00", align 1
@.str.122 = private unnamed_addr constant [21 x i8] c"basic_string::append\00", align 1

; Function Attrs: mustprogress nounwind uwtable
define linkonce_odr dso_local noundef i64 @_ZNKSt15__new_allocatorIcE11_M_max_sizeEv(ptr noundef nonnull align 1 dereferenceable(1) %0) #4 comdat align 2 {
  %2 = alloca ptr, align 8
  store ptr %0, ptr %2, align 8, !tbaa !151
  ret i64 9223372036854775807
}

; Function Attrs: mustprogress nounwind uwtable
define linkonce_odr dso_local noundef i64 @_ZNKSt15__new_allocatorIcE8max_sizeEv(ptr noundef nonnull align 1 dereferenceable(1) %0) #4 comdat align 2 {
  %2 = alloca ptr, align 8
  store ptr %0, ptr %2, align 8, !tbaa !151
  %3 = load ptr, ptr %2, align 8
  %4 = call noundef i64 @_ZNKSt15__new_allocatorIcE11_M_max_sizeEv(ptr noundef nonnull align 1 dereferenceable(1) %3) #19
  ret i64 %4
}

; Function Attrs: mustprogress nounwind uwtable
define linkonce_odr dso_local noundef i64 @_ZNSt16allocator_traitsISaIcEE8max_sizeERKS0_(ptr noundef nonnull align 1 dereferenceable(1) %0) #4 comdat align 2 {
  %2 = alloca ptr, align 8
  store ptr %0, ptr %2, align 8, !tbaa !144
  %3 = load ptr, ptr %2, align 8, !tbaa !144
  %4 = call noundef i64 @_ZNKSt15__new_allocatorIcE8max_sizeEv(ptr noundef nonnull align 1 dereferenceable(1) %3) #19
  ret i64 %4
}

; Function Attrs: mustprogress nounwind uwtable
define available_externally noundef nonnull align 1 dereferenceable(1) ptr @_ZNKSt7__cxx1112basic_stringIcSt11char_traitsIcESaIcEE16_M_get_allocatorEv(ptr noundef nonnull align 8 dereferenceable(32) %0) #4 align 2 {
  %2 = alloca ptr, align 8
  store ptr %0, ptr %2, align 8, !tbaa !39
  %3 = load ptr, ptr %2, align 8
  %4 = getelementptr inbounds nuw %"class.std::__cxx11::basic_string", ptr %3, i32 0, i32 0
  ret ptr %4
}

; Function Attrs: mustprogress nounwind uwtable
define available_externally noundef i64 @_ZNKSt7__cxx1112basic_stringIcSt11char_traitsIcESaIcEE4sizeEv(ptr noundef nonnull align 8 dereferenceable(32) %0) #4 align 2 {
  %2 = alloca ptr, align 8
  store ptr %0, ptr %2, align 8, !tbaa !39
  %3 = load ptr, ptr %2, align 8
  %4 = getelementptr inbounds nuw %"class.std::__cxx11::basic_string", ptr %3, i32 0, i32 1
  %5 = load i64, ptr %4, align 8, !tbaa !153
  ret i64 %5
}

; Function Attrs: mustprogress nounwind uwtable
define available_externally noundef i64 @_ZNKSt7__cxx1112basic_stringIcSt11char_traitsIcESaIcEE8max_sizeEv(ptr noundef nonnull align 8 dereferenceable(32) %0) #4 align 2 {
  %2 = alloca ptr, align 8
  store ptr %0, ptr %2, align 8, !tbaa !39
  %3 = load ptr, ptr %2, align 8
  %4 = call noundef nonnull align 1 dereferenceable(1) ptr @_ZNKSt7__cxx1112basic_stringIcSt11char_traitsIcESaIcEE16_M_get_allocatorEv(ptr noundef nonnull align 8 dereferenceable(32) %3)
  %5 = call noundef i64 @_ZNSt16allocator_traitsISaIcEE8max_sizeERKS0_(ptr noundef nonnull align 1 dereferenceable(1) %4) #19
  %6 = sub i64 %5, 1
  %7 = udiv i64 %6, 2
  ret i64 %7
}

; Function Attrs: mustprogress uwtable
define available_externally void @_ZNKSt7__cxx1112basic_stringIcSt11char_traitsIcESaIcEE15_M_check_lengthEmmPKc(ptr noundef nonnull align 8 dereferenceable(32) %0, i64 noundef %1, i64 noundef %2, ptr noundef %3) #2 align 2 {
  %5 = alloca ptr, align 8
  %6 = alloca i64, align 8
  %7 = alloca i64, align 8
  %8 = alloca ptr, align 8
  store ptr %0, ptr %5, align 8, !tbaa !39
  store i64 %1, ptr %6, align 8, !tbaa !149
  store i64 %2, ptr %7, align 8, !tbaa !149
  store ptr %3, ptr %8, align 8, !tbaa !41
  %9 = load ptr, ptr %5, align 8
  %10 = call noundef i64 @_ZNKSt7__cxx1112basic_stringIcSt11char_traitsIcESaIcEE8max_sizeEv(ptr noundef nonnull align 8 dereferenceable(32) %9) #19
  %11 = call noundef i64 @_ZNKSt7__cxx1112basic_stringIcSt11char_traitsIcESaIcEE4sizeEv(ptr noundef nonnull align 8 dereferenceable(32) %9) #19
  %12 = load i64, ptr %6, align 8, !tbaa !149
  %13 = sub i64 %11, %12
  %14 = sub i64 %10, %13
  %15 = load i64, ptr %7, align 8, !tbaa !149
  %16 = icmp ult i64 %14, %15
  br i1 %16, label %17, label %19

17:                                               ; preds = %4
  %18 = load ptr, ptr %8, align 8, !tbaa !41
  call void @_ZSt20__throw_length_errorPKc(ptr noundef %18) #21
  unreachable

19:                                               ; preds = %4
  ret void
}

; Function Attrs: mustprogress nounwind uwtable
define linkonce_odr dso_local noundef i64 @_ZNSt11char_traitsIcE6lengthEPKc(ptr noundef %0) #4 comdat align 2 {
  %2 = alloca ptr, align 8
  store ptr %0, ptr %2, align 8, !tbaa !41
  %3 = load ptr, ptr %2, align 8, !tbaa !41
  %4 = call i64 @strlen(ptr noundef %3) #19
  ret i64 %4
}

; Function Attrs: mustprogress uwtable
define available_externally noundef nonnull align 8 dereferenceable(32) ptr @_ZNSt7__cxx1112basic_stringIcSt11char_traitsIcESaIcEE6appendEPKc(ptr noundef nonnull align 8 dereferenceable(32) %0, ptr noundef %1) #2 align 2 {
  %3 = alloca ptr, align 8
  %4 = alloca ptr, align 8
  %5 = alloca i64, align 8
  store ptr %0, ptr %3, align 8, !tbaa !39
  store ptr %1, ptr %4, align 8, !tbaa !41
  %6 = load ptr, ptr %3, align 8
  call void @llvm.lifetime.start.p0(i64 8, ptr %5) #19
  %7 = load ptr, ptr %4, align 8, !tbaa !41
  %8 = call noundef i64 @_ZNSt11char_traitsIcE6lengthEPKc(ptr noundef %7)
  store i64 %8, ptr %5, align 8, !tbaa !149
  %9 = load i64, ptr %5, align 8, !tbaa !149
  call void @_ZNKSt7__cxx1112basic_stringIcSt11char_traitsIcESaIcEE15_M_check_lengthEmmPKc(ptr noundef nonnull align 8 dereferenceable(32) %6, i64 noundef 0, i64 noundef %9, ptr noundef @.str.122)
  %10 = load ptr, ptr %4, align 8, !tbaa !41
  %11 = load i64, ptr %5, align 8, !tbaa !149
  %12 = call noundef nonnull align 8 dereferenceable(32) ptr @_ZNSt7__cxx1112basic_stringIcSt11char_traitsIcESaIcEE9_M_appendEPKcm(ptr noundef nonnull align 8 dereferenceable(32) %6, ptr noundef %10, i64 noundef %11)
  call void @llvm.lifetime.end.p0(i64 8, ptr %5) #19
  ret ptr %12
}

; Function Attrs: mustprogress uwtable
define available_externally noundef nonnull align 8 dereferenceable(32) ptr @_ZNSt7__cxx1112basic_stringIcSt11char_traitsIcESaIcEEpLEPKc(ptr noundef nonnull align 8 dereferenceable(32) %0, ptr noundef %1) #2 align 2 {
  %3 = alloca ptr, align 8
  %4 = alloca ptr, align 8
  store ptr %0, ptr %3, align 8, !tbaa !39
  store ptr %1, ptr %4, align 8, !tbaa !41
  %5 = load ptr, ptr %3, align 8
  %6 = load ptr, ptr %4, align 8, !tbaa !41
  %7 = call noundef nonnull align 8 dereferenceable(32) ptr @_ZNSt7__cxx1112basic_stringIcSt11char_traitsIcESaIcEE6appendEPKc(ptr noundef nonnull align 8 dereferenceable(32) %5, ptr noundef %6)
  ret ptr %7
}

; Function Attrs: mustprogress uwtable
define internal void @_ZN4Luau12_GLOBAL__N_18StateDot10finishNodeEv(ptr noundef nonnull align 8 dereferenceable(272) %0) #2 align 2 {
  %2 = alloca ptr, align 8
  store ptr %0, ptr %2, align 8, !tbaa !16
  %3 = load ptr, ptr %2, align 8
  %4 = getelementptr inbounds nuw %"struct.Luau::(anonymous namespace)::StateDot", ptr %3, i32 0, i32 6
  call void (ptr, ptr, ...) @_ZN4Luau12formatAppendERNSt7__cxx1112basic_stringIcSt11char_traitsIcESaIcEEEPKcz(ptr noundef nonnull align 8 dereferenceable(32) %4, ptr noundef @.str.69)
  ret void
}

; Function Attrs: mustprogress uwtable
define internal void @_ZN4Luau12_GLOBAL__N_18StateDot15finishNodeLabelEPKNS_4TypeE(ptr noundef nonnull align 8 dereferenceable(272) %0, ptr noundef %1) #2 align 2 {
  %3 = alloca ptr, align 8
  %4 = alloca ptr, align 8
  store ptr %0, ptr %3, align 8, !tbaa !16
  store ptr %1, ptr %4, align 8, !tbaa !8
  %5 = load ptr, ptr %3, align 8
  %6 = getelementptr inbounds nuw %"struct.Luau::(anonymous namespace)::StateDot", ptr %5, i32 0, i32 0
  %7 = getelementptr inbounds nuw %"struct.Luau::ToDotOptions", ptr %6, i32 0, i32 0
  %8 = load i8, ptr %7, align 8, !tbaa !407, !range !43, !noundef !44
  %9 = trunc i8 %8 to i1
  br i1 %9, label %10, label %13

10:                                               ; preds = %2
  %11 = getelementptr inbounds nuw %"struct.Luau::(anonymous namespace)::StateDot", ptr %5, i32 0, i32 6
  %12 = load ptr, ptr %4, align 8, !tbaa !8
  call void (ptr, ptr, ...) @_ZN4Luau12formatAppendERNSt7__cxx1112basic_stringIcSt11char_traitsIcESaIcEEEPKcz(ptr noundef nonnull align 8 dereferenceable(32) %11, ptr noundef @.str.67, ptr noundef %12)
  br label %13

13:                                               ; preds = %10, %2
  %14 = getelementptr inbounds nuw %"struct.Luau::(anonymous namespace)::StateDot", ptr %5, i32 0, i32 6
  %15 = call noundef nonnull align 8 dereferenceable(32) ptr @_ZNSt7__cxx1112basic_stringIcSt11char_traitsIcESaIcEEpLEPKc(ptr noundef nonnull align 8 dereferenceable(32) %14, ptr noundef @.str.68)
  ret void
}

; Function Attrs: inlinehint mustprogress uwtable
define internal void @"_ZZN4Luau12_GLOBAL__N_18StateDot13visitChildrenEPKNS_4TypeEiENK3$_0clIRKNS_11BlockedTypeEEEDaOT_"(ptr noundef nonnull align 8 dereferenceable(24) %0, ptr noundef nonnull align 8 dereferenceable(16) %1) #9 align 2 {
  %3 = alloca ptr, align 8
  %4 = alloca ptr, align 8
  store ptr %0, ptr %3, align 8, !tbaa !219
  store ptr %1, ptr %4, align 8, !tbaa !443
  %5 = load ptr, ptr %3, align 8
  %6 = getelementptr inbounds nuw %class.anon, ptr %5, i32 0, i32 0
  %7 = load ptr, ptr %6, align 8, !tbaa !157
  %8 = getelementptr inbounds nuw %"struct.Luau::(anonymous namespace)::StateDot", ptr %7, i32 0, i32 6
  %9 = getelementptr inbounds nuw %class.anon, ptr %5, i32 0, i32 1
  %10 = load ptr, ptr %9, align 8, !tbaa !403
  %11 = load i32, ptr %10, align 4, !tbaa !4
  call void (ptr, ptr, ...) @_ZN4Luau12formatAppendERNSt7__cxx1112basic_stringIcSt11char_traitsIcESaIcEEEPKcz(ptr noundef nonnull align 8 dereferenceable(32) %8, ptr noundef @.str.84, i32 noundef %11)
  %12 = getelementptr inbounds nuw %class.anon, ptr %5, i32 0, i32 2
  %13 = load ptr, ptr %12, align 8, !tbaa !404
  %14 = load ptr, ptr %13, align 8, !tbaa !8
  call void @_ZN4Luau12_GLOBAL__N_18StateDot15finishNodeLabelEPKNS_4TypeE(ptr noundef nonnull align 8 dereferenceable(272) %7, ptr noundef %14)
  call void @_ZN4Luau12_GLOBAL__N_18StateDot10finishNodeEv(ptr noundef nonnull align 8 dereferenceable(272) %7)
  ret void
}

; Function Attrs: mustprogress uwtable
define internal void @"_ZN4LuauL8fnVisitVIRZNS_12_GLOBAL__N_18StateDot13visitChildrenEPKNS_4TypeEiE3$_0KNS_11BlockedTypeEEEvRT_PNSt11conditionalIXsr3stdE10is_const_vIT0_EEKvvE4typeE"(ptr noundef nonnull align 8 dereferenceable(24) %0, ptr noundef %1) #2 {
  %3 = alloca ptr, align 8
  %4 = alloca ptr, align 8
  store ptr %0, ptr %3, align 8, !tbaa !219
  store ptr %1, ptr %4, align 8, !tbaa !219
  %5 = load ptr, ptr %3, align 8, !tbaa !219
  %6 = load ptr, ptr %4, align 8, !tbaa !219
  call void @"_ZZN4Luau12_GLOBAL__N_18StateDot13visitChildrenEPKNS_4TypeEiENK3$_0clIRKNS_11BlockedTypeEEEDaOT_"(ptr noundef nonnull align 8 dereferenceable(24) %5, ptr noundef nonnull align 8 dereferenceable(16) %6)
  ret void
}